target datalayout = "e-m:e-p270:32:32-p271:32:32-p272:64:64-i64:64-i128:128-f80:128-n8:16:32:64-S128"
target triple = "x86_64-pc-linux-gnu"

; Function Attrs: inlinehint mustprogress nounwind uwtable
define internal noundef signext i8 @_ZL9U_FAILURE10UErrorCode(i32 noundef %0) #4 {
  %2 = alloca i32, align 4
  store i32 %0, ptr %2, align 4, !tbaa !24
  %3 = load i32, ptr %2, align 4, !tbaa !24
  %4 = icmp sgt i32 %3, 0
  %5 = zext i1 %4 to i8
  ret i8 %5
}

; Function Attrs: mustprogress uwtable
define ptr @ucbuf_resolveFileName(ptr noundef %0, ptr noundef %1, ptr noundef %2, ptr noundef %3, ptr noundef %4) #0 {
  %6 = alloca ptr, align 8
  %7 = alloca ptr, align 8
  %8 = alloca ptr, align 8
  %9 = alloca ptr, align 8
  %10 = alloca ptr, align 8
  %11 = alloca ptr, align 8
  %12 = alloca i32, align 4
  %13 = alloca i32, align 4
  %14 = alloca i32, align 4
  %15 = alloca i32, align 4
  store ptr %0, ptr %7, align 8, !tbaa !18
  store ptr %1, ptr %8, align 8, !tbaa !18
  store ptr %2, ptr %9, align 8, !tbaa !18
  store ptr %3, ptr %10, align 8, !tbaa !13
  store ptr %4, ptr %11, align 8, !tbaa !15
  call void @llvm.lifetime.start.p0(i64 4, ptr %12) #10
  store i32 0, ptr %12, align 4, !tbaa !16
  call void @llvm.lifetime.start.p0(i64 4, ptr %13) #10
  store i32 0, ptr %13, align 4, !tbaa !16
  call void @llvm.lifetime.start.p0(i64 4, ptr %14) #10
  store i32 0, ptr %14, align 4, !tbaa !16
  %16 = load ptr, ptr %11, align 8, !tbaa !15
  %17 = icmp eq ptr %16, null
  br i1 %17, label %23, label %18

18:                                               ; preds = %5
  %19 = load ptr, ptr %11, align 8, !tbaa !15
  %20 = load i32, ptr %19, align 4, !tbaa !24
  %21 = call noundef signext i8 @_ZL9U_FAILURE10UErrorCode(i32 noundef %20)
  %22 = icmp ne i8 %21, 0
  br i1 %22, label %23, label %24

23:                                               ; preds = %18, %5
  store ptr null, ptr %6, align 8
  store i32 1, ptr %15, align 4
  br label %129

24:                                               ; preds = %18
  %25 = load ptr, ptr %7, align 8, !tbaa !18
  %26 = icmp eq ptr %25, null
  br i1 %26, label %40, label %27

27:                                               ; preds = %24
  %28 = load ptr, ptr %8, align 8, !tbaa !18
  %29 = icmp eq ptr %28, null
  br i1 %29, label %40, label %30

30:                                               ; preds = %27
  %31 = load ptr, ptr %10, align 8, !tbaa !13
  %32 = icmp eq ptr %31, null
  br i1 %32, label %40, label %33

33:                                               ; preds = %30
  %34 = load ptr, ptr %9, align 8, !tbaa !18
  %35 = icmp eq ptr %34, null
  br i1 %35, label %36, label %42

36:                                               ; preds = %33
  %37 = load ptr, ptr %10, align 8, !tbaa !13
  %38 = load i32, ptr %37, align 4, !tbaa !16
  %39 = icmp sgt i32 %38, 0
  br i1 %39, label %40, label %42

40:                                               ; preds = %36, %30, %27, %24
  %41 = load ptr, ptr %11, align 8, !tbaa !15
  store i32 1, ptr %41, align 4, !tbaa !24
  store ptr null, ptr %6, align 8
  store i32 1, ptr %15, align 4
  br label %129

42:                                               ; preds = %36, %33
  %43 = load ptr, ptr %7, align 8, !tbaa !18
  %44 = call i64 @strlen(ptr noundef %43) #12
  %45 = trunc i64 %44 to i32
  store i32 %45, ptr %13, align 4, !tbaa !16
  %46 = load ptr, ptr %8, align 8, !tbaa !18
  %47 = call i64 @strlen(ptr noundef %46) #12
  %48 = trunc i64 %47 to i32
  store i32 %48, ptr %14, align 4, !tbaa !16
  %49 = load ptr, ptr %7, align 8, !tbaa !18
  %50 = load i32, ptr %13, align 4, !tbaa !16
  %51 = sub nsw i32 %50, 1
  %52 = sext i32 %51 to i64
  %53 = getelementptr inbounds i8, ptr %49, i64 %52
  %54 = load i8, ptr %53, align 1, !tbaa !39
  %55 = sext i8 %54 to i32
  %56 = icmp ne i32 %55, 47
  br i1 %56, label %57, label %104

57:                                               ; preds = %42
  %58 = load i32, ptr %13, align 4, !tbaa !16
  %59 = load i32, ptr %14, align 4, !tbaa !16
  %60 = add nsw i32 %58, %59
  %61 = add nsw i32 %60, 2
  store i32 %61, ptr %12, align 4, !tbaa !16
  %62 = load ptr, ptr %10, align 8, !tbaa !13
  %63 = load i32, ptr %62, align 4, !tbaa !16
  %64 = load i32, ptr %12, align 4, !tbaa !16
  %65 = icmp slt i32 %63, %64
  br i1 %65, label %69, label %66

66:                                               ; preds = %57
  %67 = load ptr, ptr %9, align 8, !tbaa !18
  %68 = icmp eq ptr %67, null
  br i1 %68, label %69, label %73

69:                                               ; preds = %66, %57
  %70 = load i32, ptr %12, align 4, !tbaa !16
  %71 = load ptr, ptr %10, align 8, !tbaa !13
  store i32 %70, ptr %71, align 4, !tbaa !16
  %72 = load ptr, ptr %11, align 8, !tbaa !15
  store i32 15, ptr %72, align 4, !tbaa !24
  store ptr null, ptr %6, align 8
  store i32 1, ptr %15, align 4
  br label %129

73:                                               ; preds = %66
  %74 = load ptr, ptr %9, align 8, !tbaa !18
  %75 = getelementptr inbounds i8, ptr %74, i64 0
  store i8 0, ptr %75, align 1, !tbaa !39
  %76 = load ptr, ptr %8, align 8, !tbaa !18
  %77 = getelementptr inbounds i8, ptr %76, i64 0
  %78 = load i8, ptr %77, align 1, !tbaa !39
  %79 = sext i8 %78 to i32
  %80 = icmp ne i32 %79, 47
  br i1 %80, label %81, label %98

81:                                               ; preds = %73
  %82 = load ptr, ptr %7, align 8, !tbaa !18
  %83 = load i32, ptr %13, align 4, !tbaa !16
  %84 = sub nsw i32 %83, 1
  %85 = sext i32 %84 to i64
  %86 = getelementptr inbounds i8, ptr %82, i64 %85
  %87 = load i8, ptr %86, align 1, !tbaa !39
  %88 = sext i8 %87 to i32
  %89 = icmp ne i32 %88, 46
  br i1 %89, label %90, label %98

90:                                               ; preds = %81
  %91 = load ptr, ptr %9, align 8, !tbaa !18
  %92 = load ptr, ptr %7, align 8, !tbaa !18
  %93 = call ptr @strcpy(ptr noundef %91, ptr noundef %92) #10
  %94 = load ptr, ptr %9, align 8, !tbaa !18
  %95 = load i32, ptr %13, align 4, !tbaa !16
  %96 = sext i32 %95 to i64
  %97 = getelementptr inbounds i8, ptr %94, i64 %96
  store i8 47, ptr %97, align 1, !tbaa !39
  br label %98

98:                                               ; preds = %90, %81, %73
  %99 = load ptr, ptr %9, align 8, !tbaa !18
  %100 = load i32, ptr %13, align 4, !tbaa !16
  %101 = add nsw i32 %100, 1
  %102 = sext i32 %101 to i64
  %103 = getelementptr inbounds i8, ptr %99, i64 %102
  store i8 0, ptr %103, align 1, !tbaa !39
  br label %124

104:                                              ; preds = %42
  %105 = load i32, ptr %13, align 4, !tbaa !16
  %106 = load i32, ptr %14, align 4, !tbaa !16
  %107 = add nsw i32 %105, %106
  %108 = add nsw i32 %107, 1
  store i32 %108, ptr %12, align 4, !tbaa !16
  %109 = load ptr, ptr %10, align 8, !tbaa !13
  %110 = load i32, ptr %109, align 4, !tbaa !16
  %111 = load i32, ptr %12, align 4, !tbaa !16
  %112 = icmp slt i32 %110, %111
  br i1 %112, label %116, label %113

113:                                              ; preds = %104
  %114 = load ptr, ptr %9, align 8, !tbaa !18
  %115 = icmp eq ptr %114, null
  br i1 %115, label %116, label %120

116:                                              ; preds = %113, %104
  %117 = load i32, ptr %12, align 4, !tbaa !16
  %118 = load ptr, ptr %10, align 8, !tbaa !13
  store i32 %117, ptr %118, align 4, !tbaa !16
  %119 = load ptr, ptr %11, align 8, !tbaa !15
  store i32 15, ptr %119, align 4, !tbaa !24
  store ptr null, ptr %6, align 8
  store i32 1, ptr %15, align 4
  br label %129

120:                                              ; preds = %113
  %121 = load ptr, ptr %9, align 8, !tbaa !18
  %122 = load ptr, ptr %7, align 8, !tbaa !18
  %123 = call ptr @strcpy(ptr noundef %121, ptr noundef %122) #10
  br label %124

124:                                              ; preds = %120, %98
  %125 = load ptr, ptr %9, align 8, !tbaa !18
  %126 = load ptr, ptr %8, align 8, !tbaa !18
  %127 = call ptr @strcat(ptr noundef %125, ptr noundef %126) #10
  %128 = load ptr, ptr %9, align 8, !tbaa !18
  store ptr %128, ptr %6, align 8
  store i32 1, ptr %15, align 4
  br label %129

129:                                              ; preds = %124, %116, %69, %40, %23
  call void @llvm.lifetime.end.p0(i64 4, ptr %14) #10
  call void @llvm.lifetime.end.p0(i64 4, ptr %13) #10
  call void @llvm.lifetime.end.p0(i64 4, ptr %12) #10
  %130 = load ptr, ptr %6, align 8
  ret ptr %130
}