; Function Attrs: mustprogress nofree nounwind willreturn memory(argmem: readwrite) uwtable
define noundef ptr @ucbuf_resolveFileName(ptr noundef readonly %0, ptr noundef readonly %1, ptr noundef %2, ptr noundef %3, ptr noundef %4) local_unnamed_addr #9 {
  %6 = icmp eq ptr %4, null
  br i1 %6, label %55, label %7

7:                                                ; preds = %5
  %8 = load i32, ptr %4, align 4, !tbaa !14
  %9 = icmp slt i32 %8, 1
  br i1 %9, label %10, label %55

10:                                               ; preds = %7
  %11 = icmp eq ptr %0, null
  %12 = icmp eq ptr %1, null
  %or.cond = or i1 %11, %12
  %13 = icmp eq ptr %3, null
  %or.cond3 = or i1 %or.cond, %13
  br i1 %or.cond3, label %19, label %14

14:                                               ; preds = %10
  %15 = icmp eq ptr %2, null
  br i1 %15, label %16, label %20

16:                                               ; preds = %14
  %17 = load i32, ptr %3, align 4, !tbaa !8
  %18 = icmp sgt i32 %17, 0
  br i1 %18, label %19, label %20

19:                                               ; preds = %16, %10
  store i32 1, ptr %4, align 4, !tbaa !14
  br label %55

20:                                               ; preds = %16, %14
  %21 = tail call i64 @strlen(ptr noundef nonnull dereferenceable(1) %0) #19
  %22 = trunc i64 %21 to i32
  %23 = tail call i64 @strlen(ptr noundef nonnull dereferenceable(1) %1) #19
  %24 = trunc i64 %23 to i32
  %25 = shl i64 %21, 32
  %sext = add i64 %25, -4294967296
  %26 = ashr exact i64 %sext, 32
  %27 = getelementptr inbounds i8, ptr %0, i64 %26
  %28 = load i8, ptr %27, align 1, !tbaa !28
  %.not55 = icmp eq i8 %28, 47
  %29 = add nsw i32 %24, %22
  br i1 %.not55, label %46, label %30

30:                                               ; preds = %20
  %31 = add nsw i32 %29, 2
  %32 = load i32, ptr %3, align 4, !tbaa !8
  %33 = icmp slt i32 %32, %31
  %or.cond5 = or i1 %15, %33
  br i1 %or.cond5, label %34, label %35

34:                                               ; preds = %30
  store i32 %31, ptr %3, align 4, !tbaa !8
  store i32 15, ptr %4, align 4, !tbaa !14
  br label %55

35:                                               ; preds = %30
  store i8 0, ptr %2, align 1, !tbaa !28
  %36 = load i8, ptr %1, align 1, !tbaa !28
  %.not56 = icmp eq i8 %36, 47
  br i1 %.not56, label %43, label %37

37:                                               ; preds = %35
  %38 = load i8, ptr %27, align 1, !tbaa !28
  %.not57 = icmp eq i8 %38, 46
  br i1 %.not57, label %43, label %39

39:                                               ; preds = %37
  %40 = tail call ptr @strcpy(ptr noundef nonnull dereferenceable(1) %2, ptr noundef nonnull dereferenceable(1) %0) #15
  %41 = ashr exact i64 %25, 32
  %42 = getelementptr inbounds i8, ptr %2, i64 %41
  store i8 47, ptr %42, align 1, !tbaa !28
  br label %43

43:                                               ; preds = %39, %37, %35
  %sext59 = add i64 %25, 4294967296
  %44 = ashr exact i64 %sext59, 32
  %45 = getelementptr inbounds i8, ptr %2, i64 %44
  store i8 0, ptr %45, align 1, !tbaa !28
  br label %53

46:                                               ; preds = %20
  %47 = load i32, ptr %3, align 4, !tbaa !8
  %48 = icmp sle i32 %47, %29
  %or.cond7 = or i1 %15, %48
  br i1 %or.cond7, label %49, label %51

49:                                               ; preds = %46
  %50 = add nsw i32 %29, 1
  store i32 %50, ptr %3, align 4, !tbaa !8
  store i32 15, ptr %4, align 4, !tbaa !14
  br label %55

51:                                               ; preds = %46
  %52 = tail call ptr @strcpy(ptr noundef nonnull dereferenceable(1) %2, ptr noundef nonnull dereferenceable(1) %0) #15
  br label %53

53:                                               ; preds = %51, %43
  %54 = tail call ptr @strcat(ptr noundef nonnull dereferenceable(1) %2, ptr noundef nonnull dereferenceable(1) %1) #15
  br label %55

55:                                               ; preds = %5, %7, %53, %49, %34, %19
  %.0 = phi ptr [ null, %19 ], [ null, %34 ], [ %2, %53 ], [ null, %49 ], [ null, %7 ], [ null, %5 ]
  ret ptr %.0
}